(lp0
(lp1
S'0002/0001.png'
p2
aS'0002/0005.png'
p3
aS'0002/0006.png'
p4
aS'0002/0007.png'
p5
aS'0002/0008.png'
p6
aS'0002/0009.png'
p7
aS'0002/0010.png'
p8
aS'0002/0011.png'
p9
aS'0002/0012.png'
p10
aS'0002/0013.png'
p11
aS'0002/0014.png'
p12
aS'0002/0015.png'
p13
aS'0002/0016.png'
p14
aS'0002/0017.png'
p15
aS'0002/0018.png'
p16
aS'0002/0059.png'
p17
aS'0002/0060.png'
p18
aS'0002/0075.png'
p19
aS'0002/0076.png'
p20
aS'0002/0079.png'
p21
aS'0002/0080.png'
p22
aS'0002/0081.png'
p23
aS'0002/0082.png'
p24
aS'0002/0083.png'
p25
aS'0002/0084.png'
p26
aS'0002/0085.png'
p27
aS'0002/0086.png'
p28
aS'0002/0087.png'
p29
aS'0002/0089.png'
p30
aS'0002/0090.png'
p31
aS'0002/0091.png'
p32
aS'0002/0092.png'
p33
aS'0002/0093.png'
p34
aS'0002/0094.png'
p35
aS'0002/0095.png'
p36
aS'0002/0097.png'
p37
aa(lp38
S'0004/20150415_165607.jpg'
p39
aS'0004/20150415_172559.jpg'
p40
aS'0004/20150415_175601.jpg'
p41
aS'0004/20150415_182608.jpg'
p42
aS'0004/20150415_185603.jpg'
p43
aS'0004/20150415_192614.jpg'
p44
aS'0004/20150415_195606.jpg'
p45
aS'0004/20150415_202606.jpg'
p46
aS'0004/20150415_205612.jpg'
p47
aS'0004/20150415_212609.jpg'
p48
aS'0004/20150415_215603.jpg'
p49
aS'0004/20150415_222555.jpg'
p50
aS'0004/20150415_225557.jpg'
p51
aS'0004/20150415_232609.jpg'
p52
aS'0004/20150415_235601.jpg'
p53
aS'0004/20150416_002601.jpg'
p54
aS'0004/20150416_005609.jpg'
p55
aS'0004/20150416_012559.jpg'
p56
aS'0004/20150416_015558.jpg'
p57
aS'0004/20150419_135604.jpg'
p58
aS'0004/20150419_142602.jpg'
p59
aS'0004/20150419_145559.jpg'
p60
aS'0004/20150419_152601.jpg'
p61
aS'0004/20150419_155557.jpg'
p62
aS'0004/20150419_162607.jpg'
p63
aS'0004/20150419_165601.jpg'
p64
aS'0004/20150419_172559.jpg'
p65
aS'0004/20150419_175558.jpg'
p66
aS'0004/20150419_182601.jpg'
p67
aS'0004/20150419_185608.jpg'
p68
aS'0004/20150419_195603.jpg'
p69
aS'0004/20150419_202609.jpg'
p70
aS'0004/20150419_205559.jpg'
p71
aS'0004/20150419_215609.jpg'
p72
aS'0004/20150419_222602.jpg'
p73
aS'0004/20150419_225558.jpg'
p74
aS'0004/20150419_232605.jpg'
p75
aS'0004/20150419_235603.jpg'
p76
aS'0004/20150420_002558.jpg'
p77
aS'0004/20150420_005608.jpg'
p78
aS'0004/20150420_012608.jpg'
p79
aS'0004/20150420_015604.jpg'
p80
aS'0004/20150420_022601.jpg'
p81
aS'0004/20150420_032621.jpg'
p243
aa(lp244
S'0018/0084.png'
p245
aS'0018/0098.png'
p246
aS'0018/0112.png'
p247
aS'0018/0126.png'
p248
aS'0018/0133.png'
p249
aS'0018/0147.png'
p250
aS'0018/0161.png'
p251
aS'0018/0175.png'
p252
aS'0018/0182.png'
p253
aS'0018/0189.png'
p254
aS'0018/0196.png'
p255
aS'0018/0203.png'
p256
aS'0018/0217.png'
p257
aS'0018/0224.png'
p258
aS'0018/0231.png'
p259
aS'0018/0238.png'
p260
aS'0018/0245.png'
p261
aS'0018/0252.png'
p262
aS'0018/0259.png'
p263
aS'0018/0266.png'
p264
aS'0018/0273.png'
p265
aS'0018/0280.png'
p266
aS'0018/0287.png'
p267
aS'0018/0294.png'
p268
aS'0018/0301.png'
p269
aS'0018/0308.png'
p270
aS'0018/0315.png'
p271
aS'0018/0322.png'
p272
aS'0018/0329.png'
p273
aS'0018/0336.png'
p274
aS'0018/0343.png'
p275
aS'0018/0350.png'
p276
aS'0018/0357.png'
p277
aS'0018/0364.png'
p278
aS'0018/0371.png'
p279
aS'0018/0378.png'
p280
aS'0018/0385.png'
p281
aS'0018/0392.png'
p282
aS'0018/0399.png'
p283
aS'0018/0406.png'
p284
aS'0018/0413.png'
p285
aS'0018/0420.png'
p286
aS'0018/0427.png'
p287
aS'0018/0434.png'
p288
aS'0018/0441.png'
p289
aS'0018/0448.png'
p290
aS'0018/0455.png'
p291
aS'0018/0462.png'
p292
aS'0018/0469.png'
p293
aS'0018/0476.png'
p294
aS'0018/0483.png'
p295
aS'0018/0490.png'
p296
aS'0018/0497.png'
p297
aS'0018/0518.png'
p298
aS'0018/0525.png'
p299
aS'0018/0532.png'
p300
aS'0018/0539.png'
p301
aS'0018/0546.png'
p302
aS'0018/0553.png'
p452
aa(lp453
S'0028/20150502_111629.jpg'
p454
aS'0028/20150502_121625.jpg'
p455
aS'0028/20150502_131621.jpg'
p456
aS'0028/20150502_141625.jpg'
p457
aS'0028/20150502_161630.jpg'
p458
aS'0028/20150502_171637.jpg'
p459
aS'0028/20150502_181633.jpg'
p460
aS'0028/20150510_041621.jpg'
p461
aS'0028/20150510_051629.jpg'
p462
aS'0028/20150510_061634.jpg'
p463
aS'0028/20150510_071632.jpg'
p464
aS'0028/20150510_091624.jpg'
p465
aS'0028/20150510_101629.jpg'
p466
aS'0028/20150510_111629.jpg'
p467
aS'0028/20150510_121635.jpg'
p468
aS'0028/20150510_131622.jpg'
p469
aS'0028/20150510_141627.jpg'
p470
aS'0028/20150510_151641.jpg'
p471
aS'0028/20150510_161630.jpg'
p472
aS'0028/20150510_191630.jpg'
p473
aS'0028/20150518_141626.jpg'
p474
aS'0028/20150518_151629.jpg'
p475
aS'0028/20150518_161631.jpg'
p476
aS'0028/20150521_041621.jpg'
p477
aS'0028/20150521_051625.jpg'
p478
aS'0028/20150521_061622.jpg'
p479
aS'0028/20150521_071628.jpg'
p480
aS'0028/20150521_081623.jpg'
p481
aS'0028/20150521_091626.jpg'
p482
aS'0028/20150521_094619.jpg'
p483
aS'0028/20150521_101630.jpg'
p484
aS'0028/20150521_111629.jpg'
p485
aS'0028/20150521_121630.jpg'
p486
aS'0028/20150521_131635.jpg'
p487
aS'0028/20150521_141622.jpg'
p488
aS'0028/20150521_151631.jpg'
p489
aS'0028/20150521_161633.jpg'
p490
aS'0028/20150521_171627.jpg'
p491
aa(lp492
S'0029/20140601_114638.jpg'
p493
aS'0029/20140601_121644.jpg'
p494
aS'0029/20140601_124648.jpg'
p495
aS'0029/20140601_131632.jpg'
p496
aS'0029/20140601_134642.jpg'
p497
aS'0029/20140601_141638.jpg'
p498
aS'0029/20140601_144631.jpg'
p499
aS'0029/20140601_151635.jpg'
p500
aS'0029/20140601_154643.jpg'
p501
aS'0029/20140601_161641.jpg'
p502
aS'0029/20140601_164637.jpg'
p503
aS'0029/20140601_171630.jpg'
p504
aS'0029/20140601_174637.jpg'
p505
aS'0029/20140601_181638.jpg'
p506
aS'0029/20140601_184636.jpg'
p507
aS'0029/20140601_191642.jpg'
p508
aS'0029/20140601_201629.jpg'
p509
aS'0029/20140601_204637.jpg'
p510
aS'0029/20140601_211632.jpg'
p511
aS'0029/20140601_214642.jpg'
p512
aS'0029/20140601_221631.jpg'
p513
aS'0029/20140601_224636.jpg'
p514
aS'0029/20140603_194640.jpg'
p515
aS'0029/20140604_134633.jpg'
p516
aS'0029/20140604_141642.jpg'
p517
aS'0029/20140604_144642.jpg'
p518
aS'0029/20140604_214637.jpg'
p519
aS'0029/20140604_224637.jpg'
p520
aS'0029/20140604_231637.jpg'
p847
aa(lp848
S'0047/0001.png'
p849
aS'0047/0002.png'
p850
aS'0047/0003.png'
p851
aS'0047/0004.png'
p852
aS'0047/0005.png'
p853
aS'0047/0007.png'
p854
aS'0047/0008.png'
p855
aS'0047/0009.png'
p856
aS'0047/0010.png'
p857
aS'0047/0011.png'
p858
aS'0047/0012.png'
p859
aS'0047/0013.png'
p860
aS'0047/0014.png'
p861
aS'0047/0015.png'
p862
aS'0047/0016.png'
p863
aS'0047/0017.png'
p864
aS'0047/0018.png'
p865
aS'0047/0019.png'
p866
aS'0047/0020.png'
p867
aS'0047/0021.png'
p868
aS'0047/0022.png'
p869
aS'0047/0023.png'
p870
aS'0047/0024.png'
p871
aS'0047/0025.png'
p872
aS'0047/0026.png'
p873
aS'0047/0027.png'
p874
aS'0047/0028.png'
p875
aS'0047/0029.png'
p876
aS'0047/0030.png'
p877
aS'0047/0031.png'
p878
aS'0047/0032.png'
p879
aS'0047/0033.png'
p880
aS'0047/0034.png'
p881
aS'0047/0035.png'
p882
aS'0047/0036.png'
p883
aS'0047/0037.png'
p884
aS'0047/0038.png'
p885
aS'0047/0039.png'
p886
aS'0047/0041.png'
p887
aS'0047/0042.png'
p911
aa(lp912
S'0052/0001.png'
p913
aS'0052/0004.png'
p914
aS'0052/0007.png'
p915
aS'0052/0011.png'
p916
aS'0052/0014.png'
p917
aS'0052/0017.png'
p918
aS'0052/0021.png'
p919
aS'0052/0024.png'
p920
aS'0052/0027.png'
p921
aS'0052/0031.png'
p922
aS'0052/0034.png'
p923
aS'0052/0037.png'
p924
aS'0052/0041.png'
p925
aS'0052/0044.png'
p926
aS'0052/0047.png'
p927
aS'0052/0051.png'
p928
aS'0052/0054.png'
p929
aS'0052/0057.png'
p930
aS'0052/0061.png'
p931
aS'0052/0064.png'
p932
aS'0052/0067.png'
p933
aS'0052/0071.png'
p934
aS'0052/0074.png'
p935
aS'0052/0077.png'
p936
aS'0052/0081.png'
p937
aS'0052/0084.png'
p938
aS'0052/0087.png'
p939
aS'0052/0091.png'
p940
aS'0052/0094.png'
p941
aS'0052/0097.png'
p942
aS'0052/0101.png'
p943
aS'0052/0104.png'
p944
aS'0052/0114.png'
p945
aS'0052/0117.png'
p946
aS'0052/0121.png'
p947
aS'0052/0124.png'
p948
aa(lp949
S'0053/0004.png'
p950
aS'0053/0007.png'
p951
aS'0053/0011.png'
p952
aS'0053/0014.png'
p953
aS'0053/0017.png'
p954
aS'0053/0021.png'
p955
aS'0053/0024.png'
p956
aS'0053/0027.png'
p957
aS'0053/0031.png'
p958
aS'0053/0034.png'
p959
aS'0053/0037.png'
p960
aS'0053/0041.png'
p961
aS'0053/0044.png'
p962
aS'0053/0047.png'
p963
aS'0053/0051.png'
p964
aS'0053/0054.png'
p965
aS'0053/0057.png'
p966
aS'0053/0061.png'
p967
aS'0053/0064.png'
p968
aS'0053/0067.png'
p969
aS'0053/0071.png'
p970
aS'0053/0074.png'
p971
aS'0053/0077.png'
p972
aS'0053/0081.png'
p973
aS'0053/0084.png'
p974
aS'0053/0087.png'
p975
aS'0053/0091.png'
p976
aS'0053/0094.png'
p977
aS'0053/0097.png'
p978
aS'0053/0101.png'
p979
aS'0053/0104.png'
p980
aS'0053/0107.png'
p981
aS'0053/0111.png'
p982
aS'0053/0114.png'
p983
aS'0053/0117.png'
p984
aS'0053/0121.png'
p985
aS'0053/0124.png'
p1047
aa(lp1048
S'0059/0001.png'
p1049
aS'0059/0003.png'
p1050
aS'0059/0006.png'
p1051
aS'0059/0011.png'
p1052
aS'0059/0013.png'
p1053
aS'0059/0016.png'
p1054
aS'0059/0021.png'
p1055
aS'0059/0023.png'
p1056
aS'0059/0026.png'
p1057
aS'0059/0031.png'
p1058
aS'0059/0033.png'
p1059
aS'0059/0036.png'
p1060
aS'0059/0041.png'
p1061
aS'0059/0043.png'
p1062
aS'0059/0046.png'
p1063
aS'0059/0051.png'
p1064
aS'0059/0053.png'
p1065
aS'0059/0056.png'
p1066
aS'0059/0061.png'
p1067
aS'0059/0063.png'
p1068
aS'0059/0066.png'
p1069
aS'0059/0071.png'
p1070
aS'0059/0076.png'
p1071
aS'0059/0081.png'
p1072
aS'0059/0086.png'
p1073
aS'0059/0091.png'
p1074
aS'0059/0096.png'
p1075
aS'0059/0101.png'
p1076
aS'0059/0106.png'
p1077
aS'0059/0111.png'
p1474
aa(lp1475
S'0118/0001.png'
p1476
aS'0118/0002.png'
p1477
aS'0118/0003.png'
p1478
aS'0118/0004.png'
p1479
aS'0118/0005.png'
p1480
aS'0118/0006.png'
p1481
aS'0118/0007.png'
p1482
aS'0118/0008.png'
p1483
aS'0118/0009.png'
p1484
aS'0118/0010.png'
p1485
aS'0118/0011.png'
p1486
aS'0118/0012.png'
p1487
aS'0118/0013.png'
p1488
aS'0118/0014.png'
p1489
aS'0118/0015.png'
p1490
aS'0118/0016.png'
p1491
aS'0118/0017.png'
p1492
aS'0118/0018.png'
p1493
aS'0118/0019.png'
p1494
aS'0118/0020.png'
p1495
aS'0118/0021.png'
p1496
aS'0118/0022.png'
p1497
aS'0118/0023.png'
p1498
aS'0118/0024.png'
p1499
aa(lp1500
S'0124/0001.png'
p1501
aS'0124/0002.png'
p1502
aS'0124/0003.png'
p1503
aS'0124/0004.png'
p1504
aS'0124/0005.png'
p1505
aS'0124/0006.png'
p1506
aS'0124/0007.png'
p1507
aS'0124/0008.png'
p1508
aS'0124/0009.png'
p1509
aS'0124/0010.png'
p1510
aS'0124/0011.png'
p1511
aS'0124/0012.png'
p1512
aS'0124/0013.png'
p1513
aS'0124/0014.png'
p1514
aS'0124/0015.png'
p1515
aS'0124/0016.png'
p1516
aS'0124/0017.png'
p1517
aS'0124/0018.png'
p1518
aS'0124/0019.png'
p1519
aS'0124/0020.png'
p1520
aS'0124/0021.png'
p1521
aS'0124/0022.png'
p1522
aS'0124/0023.png'
p1523
aS'0124/0024.png'
p1524
aS'0124/0025.png'
p1525
aS'0124/0026.png'
p1526
aS'0124/0027.png'
p1527
aS'0124/0028.png'
p1528
aS'0124/0029.png'
p1529
aS'0124/0030.png'
p1530
aS'0124/0031.png'
p1531
aS'0124/0032.png'
p1532
aS'0124/0033.png'
p1533
aS'0124/0034.png'
p1534
aa(lp1535
S'0125/0001.png'
p1536
aS'0125/0004.png'
p1537
aS'0125/0008.png'
p1538
aS'0125/0011.png'
p1539
aS'0125/0014.png'
p1540
aS'0125/0018.png'
p1541
aS'0125/0021.png'
p1542
aS'0125/0024.png'
p1543
aS'0125/0028.png'
p1544
aS'0125/0031.png'
p1545
aS'0125/0034.png'
p1546
aS'0125/0038.png'
p1547
aS'0125/0041.png'
p1548
aS'0125/0044.png'
p1549
aS'0125/0048.png'
p1550
aS'0125/0051.png'
p1551
aS'0125/0054.png'
p1552
aS'0125/0058.png'
p1553
aS'0125/0061.png'
p1554
aS'0125/0064.png'
p1555
aS'0125/0068.png'
p1556
aS'0125/0071.png'
p1557
aS'0125/0074.png'
p1558
aS'0125/0078.png'
p1559
aS'0125/0081.png'
p1560
aS'0125/0084.png'
p1561
aS'0125/0088.png'
p1562
aS'0125/0091.png'
p1563
aS'0125/0094.png'
p1564
aS'0125/0098.png'
p1565
aS'0125/0101.png'
p1566
aS'0125/0104.png'
p1567
aS'0125/0108.png'
p1568
aS'0125/0111.png'
p1569
aS'0125/0114.png'
p1570
aS'0125/0118.png'
p1571
aS'0125/0121.png'
p1572
aS'0125/0124.png'
p1573
aS'0125/0128.png'
p1574
aS'0125/0134.png'
p1575
aS'0125/0141.png'
p1576
aS'0125/0148.png'
p1577
aS'0125/0154.png'

p1608
aa(lp1609
S'0129/0005.png'
p1610
aS'0129/0010.png'
p1611
aS'0129/0015.png'
p1612
aS'0129/0020.png'
p1613
aS'0129/0025.png'
p1614
aS'0129/0030.png'
p1615
aS'0129/0035.png'
p1616
aS'0129/0040.png'
p1617
aS'0129/0045.png'
p1618
aS'0129/0050.png'
p1619
aS'0129/0055.png'
p1620
aS'0129/0060.png'
p1621
aS'0129/0065.png'
p1622
aS'0129/0070.png'
p1623
aS'0129/0075.png'
p1624
aS'0129/0080.png'
p1625
aS'0129/0085.png'
p1626
aS'0129/0090.png'
p1627
aS'0129/0095.png'
p1628
aS'0129/0100.png'
p1629
aS'0129/0105.png'
p1630
aS'0129/0110.png'
p1631
aS'0129/0115.png'
p1632
aS'0129/0120.png'
p1633
aS'0129/0125.png'
p1634
aS'0129/0130.png'
p1635
aS'0129/0135.png'
p1636
aS'0129/0140.png'
p1637
aS'0129/0145.png'
p1638
aS'0129/0150.png'
p1639
aS'0129/0155.png'
p1640
aS'0129/0160.png'
p1641
aS'0129/0165.png'
p1642
aS'0129/0170.png'
p1643
aS'0129/0175.png'
p1644
aS'0129/0180.png'
p1645
aa(lp1646
S'0130/20140503_164009.jpg'
p1647
aS'0130/20140504_034021.jpg'
p1648
aS'0130/20140504_041020.jpg'
p1649
aS'0130/20140504_044021.jpg'
p1650
aS'0130/20140504_051013.jpg'
p1651
aS'0130/20140504_054013.jpg'
p1652
aS'0130/20140504_061026.jpg'
p1653
aS'0130/20140504_064022.jpg'
p1654
aS'0130/20140504_071017.jpg'
p1655
aS'0130/20140504_074021.jpg'
p1656
aS'0130/20140504_081024.jpg'
p1657
aS'0130/20140504_084015.jpg'
p1658
aS'0130/20140504_091008.jpg'
p1659
aS'0130/20140504_094015.jpg'
p1660
aS'0130/20140504_101018.jpg'
p1661
aS'0130/20140504_104020.jpg'
p1662
aS'0130/20140504_111020.jpg'
p1663
aS'0130/20140504_114015.jpg'
p1664
aS'0130/20140504_121018.jpg'
p1665
aS'0130/20140504_124015.jpg'
p1666
aS'0130/20140504_131015.jpg'
p1667
aS'0130/20140504_134018.jpg'
p1668
aS'0130/20140504_141013.jpg'
p1669
aS'0130/20140504_144015.jpg'
p1670
aS'0130/20140504_151018.jpg'
p1671
aS'0130/20140504_154024.jpg'
p1672
aS'0130/20140504_161013.jpg'
p1673
aS'0130/20140504_164016.jpg'
p1674
aS'0130/20140504_171017.jpg'
p1675
aS'0130/20140504_174015.jpg'
p1676
aS'0130/20140504_181020.jpg'
p1677
aS'0130/20140504_184022.jpg'
p1678
aS'0130/20140504_191014.jpg'
p1746
aa(lp1747
S'0134/20130607_070249.jpg'
p1748
aS'0134/20130607_073238.jpg'
p1749
aS'0134/20130607_080241.jpg'
p1750
aS'0134/20130607_083240.jpg'
p1751
aS'0134/20130607_090242.jpg'
p1752
aS'0134/20130607_093240.jpg'
p1753
aS'0134/20130607_100253.jpg'
p1754
aS'0134/20130607_103251.jpg'
p1755
aS'0134/20130607_110244.jpg'
p1756
aS'0134/20130607_113251.jpg'
p1757
aS'0134/20130607_120246.jpg'
p1758
aS'0134/20130607_123245.jpg'
p1759
aS'0134/20130607_130252.jpg'
p1760
aS'0134/20130607_133248.jpg'
p1761
aS'0134/20130607_140248.jpg'
p1762
aS'0134/20130607_143254.jpg'
p1763
aS'0134/20130607_150242.jpg'
p1764
aS'0134/20130607_153256.jpg'
p1765
aS'0134/20130607_160242.jpg'
p1766
aS'0134/20130607_163245.jpg'
p1767
aS'0134/20130607_170243.jpg'
p1768
aS'0134/20130607_173248.jpg'
p1769
aS'0134/20130607_180242.jpg'
p1770
aS'0134/20130607_183249.jpg'
p2401
aa(lp2402
S'0157/0010.png'
p2403
aS'0157/0011.png'
p2404
aS'0157/0012.png'
p2405
aS'0157/0013.png'
p2406
aS'0157/0014.png'
p2407
aS'0157/0015.png'
p2408
aS'0157/0016.png'
p2409
aS'0157/0017.png'
p2410
aS'0157/0018.png'
p2411
aS'0157/0019.png'
p2412
aS'0157/0020.png'
p2413
aS'0157/0021.png'
p2414
aS'0157/0022.png'
p2415
aS'0157/0023.png'
p2416
aS'0157/0024.png'
p2417
aS'0157/0025.png'
p2418
aS'0157/0026.png'
p2419
aS'0157/0027.png'
p2420
aS'0157/0028.png'
p2421
aS'0157/0029.png'
p2422
aS'0157/0030.png'
p2423
aS'0157/0031.png'
p2424
aS'0157/0032.png'
p2425
aS'0157/0033.png'
p2426
aS'0157/0034.png'
p2427
aS'0157/0035.png'
p2428
aS'0157/0036.png'
p2429
aS'0157/0037.png'
p2430
aS'0157/0038.png'
p2431
aS'0157/0039.png'
p2432
aS'0157/0040.png'
p2433
aS'0157/0041.png'
p2434
aS'0157/0042.png'
p2435
aS'0157/0043.png'
p2436
aS'0157/0044.png'
p2437
aS'0157/0045.png'
p2438
aS'0157/0046.png'
p2439
aS'0157/0047.png'
p2440
aS'0157/0048.png'
p2441
aS'0157/0049.png'
p2442
aS'0157/0050.png'
p2443
aS'0157/0051.png'
p2444
aS'0157/0052.png'
p2445
aS'0157/0053.png'
p2446
aS'0157/0054.png'
p2447
aS'0157/0055.png'
p2448
aS'0157/0056.png'
p2449
aS'0157/0057.png'
p2450
aS'0157/0058.png'
p2451
aS'0157/0059.png'
p2452
aS'0157/0060.png'
p2453
aS'0157/0061.png'
p2454
aS'0157/0062.png'
p2455
aS'0157/0063.png'
p2456
aS'0157/0064.png'
p2457
aS'0157/0065.png'
p2458
aS'0157/0066.png'
p2459
aS'0157/0067.png'
p2460
aS'0157/0068.png'
p2461
aS'0157/0147.png'
p2462
aS'0157/0152.png'
p2463
aS'0157/0157.png'
p2491
aa(lp2492
S'0159/000.png'
p2493
aS'0159/001.png'
p2494
aS'0159/002.png'
p2495
aS'0159/003.png'
p2496
aS'0159/004.png'
p2497
aS'0159/005.png'
p2498
aS'0159/006.png'
p2499
aS'0159/007.png'
p2500
aS'0159/008.png'
p2501
aS'0159/009.png'
p2502
aS'0159/010.png'
p2503
aS'0159/011.png'
p2504
aS'0159/013.png'
p2505
aS'0159/014.png'
p2506
aS'0159/016.png'
p2507
aS'0159/017.png'
p2508
aS'0159/020.png'
p2509
aS'0159/021.png'
p2510
aS'0159/022.png'
p2511
aS'0159/023.png'
p2512
aS'0159/024.png'
p2513
aS'0159/025.png'
p2514
aS'0159/026.png'
p2515
aS'0159/027.png'
p2516
aS'0159/028.png'
p2517
aS'0159/029.png'
p2518
aS'0159/030.png'
p2519
aS'0159/031.png'
p2520
aS'0159/032.png'
p2521
aS'0159/033.png'
p2522
aS'0159/034.png'
p2523
aS'0159/035.png'
p2524
aS'0159/036.png'
p2525
aS'0159/037.png'
p2526
aS'0159/038.png'
p2527
aS'0159/039.png'
p2528
aS'0159/040.png'
p2529
aS'0159/041.png'
p2530
aS'0159/042.png'
p2531
aS'0159/043.png'
p2532
aS'0159/044.png'
p2533
aS'0159/045.png'
p2534
aS'0159/046.png'
p2535
aS'0159/047.png'
p2536
aS'0159/048.png'
p2537
aS'0159/049.png'
p2538
aS'0159/050.png'
p2539
aS'0159/051.png'
p2540
aS'0159/052.png'
p2541
aS'0159/053.png'
p2542
aS'0159/054.png'
p2543
aS'0159/055.png'
p2544
aS'0159/056.png'
p2545
aS'0159/057.png'
p2546
aS'0159/058.png'
p2547
aS'0159/059.png'
p2548
aS'0159/060.png'
p2549
aS'0159/061.png'
p2550
aS'0159/062.png'
p2551
aS'0159/063.png'
p2858
aa(lp2859
S'0300/0006.png'
p2860
aS'0300/0008.png'
p2861
aS'0300/0010.png'
p2862
aS'0300/0011.png'
p2863
aS'0300/0014.png'
p2864
aS'0300/0015.png'
p2865
aS'0300/0016.png'
p2866
aS'0300/0018.png'
p2867
aS'0300/0019.png'
p2868
aS'0300/0020.png'
p2869
aS'0300/0021.png'
p2870
aS'0300/0023.png'
p2871
aS'0300/0024.png'
p2872
aS'0300/0025.png'
p2873
aS'0300/0026.png'
p2874
aS'0300/0028.png'
p2875
aS'0300/0046.png'
p2876
aS'0300/0048.png'
p2877
aS'0300/0049.png'
p2878
aS'0300/0050.png'
p2879
aS'0300/0051.png'
p2880
aS'0300/0053.png'
p2881
aS'0300/0054.png'
p2882
aS'0300/0055.png'
p2883
aS'0300/0056.png'
p2884
aS'0300/0058.png'
p2885
aS'0300/0059.png'
p2886
aS'0300/0060.png'
p2887
aS'0300/0061.png'
p2888
aS'0300/0063.png'
p2889
aS'0300/0064.png'
p2890
aS'0300/0065.png'
p2891
aS'0300/0066.png'
p2892
aS'0300/0068.png'
p2893
aS'0300/0069.png'
p2894
aS'0300/0070.png'
p2895
aS'0300/0071.png'
p2896
aS'0300/0073.png'
p2897
aS'0300/0074.png'
p2898
aS'0300/0075.png'
p2899
aS'0300/0076.png'
p2900
aS'0300/0078.png'
p3093
aa(lp3094
S'0306/0001.png'
p3095
aS'0306/0002.png'
p3096
aS'0306/0003.png'
p3097
aS'0306/0004.png'
p3098
aS'0306/0005.png'
p3099
aS'0306/0006.png'
p3100
aS'0306/0007.png'
p3101
aS'0306/0008.png'
p3102
aS'0306/0009.png'
p3103
aS'0306/0010.png'
p3104
aS'0306/0011.png'
p3105
aS'0306/0012.png'
p3106
aS'0306/0013.png'
p3107
aS'0306/0014.png'
p3108
aS'0306/0015.png'
p3109
aS'0306/0016.png'
p3110
aS'0306/0017.png'
p3111
aS'0306/0018.png'
p3112
aS'0306/0019.png'
p3113
aS'0306/0020.png'
p3114
aS'0306/0021.png'
p3115
aS'0306/0022.png'
p3116
aS'0306/0023.png'
p3117
aS'0306/0024.png'
p3118
aS'0306/0025.png'
p3119
aS'0306/0026.png'
p3120
aS'0306/0044.png'
p3121
aS'0306/0045.png'
p3122
aS'0306/0046.png'
p3123
aS'0306/0047.png'
p3124
aS'0306/0048.png'
p3125
aS'0306/0049.png'
p3250
aa(lp3251
S'0310/0044.png'
p3252
aS'0310/0045.png'
p3253
aS'0310/0047.png'
p3254
aS'0310/0051.png'
p3255
aS'0310/0054.png'
p3256
aS'0310/0055.png'
p3257
aS'0310/0057.png'
p3258
aS'0310/0061.png'
p3259
aS'0310/0064.png'
p3260
aS'0310/0065.png'
p3261
aS'0310/0067.png'
p3262
aS'0310/0071.png'
p3263
aS'0310/0074.png'
p3264
aS'0310/0075.png'
p3265
aS'0310/0077.png'
p3266
aS'0310/0081.png'
p3267
aS'0310/0084.png'
p3268
aS'0310/0085.png'
p3269
aS'0310/0087.png'
p3270
aS'0310/0091.png'
p3271
aS'0310/0094.png'
p3272
aS'0310/0095.png'
p3273
aS'0310/0097.png'
p3274
aS'0310/0101.png'
p3275
aS'0310/0104.png'
p3276
aS'0310/0105.png'
p3277
aS'0310/0107.png'
p3278
aS'0310/0111.png'
p3279
aS'0310/0114.png'
p3280
aS'0310/0115.png'
p3281
aS'0310/0117.png'
p3282
aS'0310/0119.png'
p4482
aa(lp4483
S'0356/0002.png'
p4484
aS'0356/0012.png'
p4485
aS'0356/0022.png'
p4486
aS'0356/0033.png'
p4487
aS'0356/0042.png'
p4488
aS'0356/0052.png'
p4489
aS'0356/0062.png'
p4490
aS'0356/0072.png'
p4491
aS'0356/0082.png'
p4492
aS'0356/0092.png'
p4493
aS'0356/0102.png'
p4494
aS'0356/0112.png'
p4495
aS'0356/0122.png'
p4496
aS'0356/0132.png'
p4497
aS'0356/0192.png'
p4498
aS'0356/0202.png'
p4499
aS'0356/0224.png'
p4500
aS'0356/0232.png'
p4501
aS'0356/0242.png'
p4502
aS'0356/0252.png'
p4503
aS'0356/0262.png'
p4504
aS'0356/0272.png'
p4505
aS'0356/0282.png'
p4506
aS'0356/0292.png'
p4507
aS'0356/0310.png'
p4778
aa(lp4779
S'0381/0001.png'
p4780
aS'0381/0002.png'
p4781
aS'0381/0008.png'
p4782
aS'0381/0009.png'
p4783
aS'0381/0010.png'
p4784
aS'0381/0011.png'
p4785
aS'0381/0012.png'
p4786
aS'0381/0013.png'
p4787
aS'0381/0014.png'
p4788
aS'0381/0015.png'
p4789
aS'0381/0028.png'
p4790
aS'0381/0029.png'
p4791
aS'0381/0030.png'
p4792
aS'0381/0031.png'
p4793
aS'0381/0032.png'
p4794
aS'0381/0033.png'
p4795
aS'0381/0034.png'
p4796
aS'0381/0035.png'
p4797
aS'0381/0036.png'
p4798
aS'0381/0037.png'
p5059
aa(lp5060
S'0400/0001.png'
p5061
aS'0400/0007.png'
p5062
aS'0400/0008.png'
p5063
aS'0400/0009.png'
p5064
aS'0400/0010.png'
p5065
aS'0400/0021.png'
p5066
aS'0400/0022.png'
p5067
aS'0400/0023.png'
p5068
aS'0400/0024.png'
p5069
aS'0400/0025.png'
p5070
aS'0400/0026.png'
p5071
aS'0400/0027.png'
p5072
aS'0400/0028.png'
p5073
aS'0400/0029.png'
p5074
aS'0400/0030.png'
p5075
aS'0400/0031.png'
p5076
aS'0400/0032.png'
p5077
aS'0400/0033.png'
p5078
aS'0400/0034.png'
p5079
aS'0400/0035.png'
p5619
aa(lp5620
S'0419/0070.png'
p5621
aS'0419/0071.png'
p5622
aS'0419/0072.png'
p5623
aS'0419/0073.png'
p5624
aS'0419/0074.png'
p5625
aS'0419/0075.png'
p5626
aS'0419/0076.png'
p5627
aS'0419/0077.png'
p5628
aS'0419/0078.png'
p5629
aS'0419/0079.png'
p5630
aS'0419/0080.png'
p5631
aS'0419/0081.png'
p5632
aS'0419/0082.png'
p5633
aS'0419/0083.png'
p5634
aS'0419/0084.png'
p5635
aS'0419/0085.png'
p5636
aS'0419/0086.png'
p5637
aS'0419/0087.png'
p5638
aS'0419/0088.png'
p5639
aS'0419/0089.png'
p5640
aS'0419/0090.png'
p5641
aS'0419/0091.png'
p5642
aS'0419/0092.png'
p5643
aS'0419/0093.png'
p5644
aS'0419/0094.png'
p5645
aS'0419/0095.png'
p5646
aS'0419/0096.png'
p5647
aS'0419/0097.png'
p5648
aS'0419/0098.png'
p5649
aS'0419/0099.png'
p5650
aS'0419/0100.png'
p5651
aS'0419/0101.png'
p5652
aS'0419/0102.png'
p5653
aS'0419/0103.png'
p5654
aS'0419/0104.png'
p5655
aS'0419/0105.png'
p5656
aS'0419/0106.png'
p5657
aS'0419/0107.png'
p5658
aS'0419/0108.png'
p5659
aS'0419/0109.png'
p5660
aS'0419/0110.png'
p5661
aS'0419/0111.png'
p5662
aS'0419/0112.png'
p5663
aS'0419/0113.png'
p5664
aS'0419/0114.png'
p5665
aS'0419/0115.png'
p5666
aS'0419/0116.png'
p5667
aS'0419/0117.png'
p5668
aS'0419/0118.png'
p5669
aS'0419/0119.png'
p5670
aS'0419/0120.png'
p5671
aS'0419/0121.png'
p5672
aS'0419/0122.png'
p5673
aS'0419/0123.png'
p5674
aS'0419/0124.png'
p5675
aS'0419/0125.png'
p5676
aS'0419/0126.png'
p5677
aS'0419/0127.png'
p5678
aS'0419/0128.png'
p5679
aS'0419/0130.png'
p5680
aa(lp5681
S'0420/0001.png'
p5682
aS'0420/0004.png'
p5683
aS'0420/0008.png'
p5684
aS'0420/0011.png'
p5685
aS'0420/0014.png'
p5686
aS'0420/0018.png'
p5687
aS'0420/0021.png'
p5688
aS'0420/0024.png'
p5689
aS'0420/0028.png'
p5690
aS'0420/0031.png'
p5691
aS'0420/0034.png'
p5692
aS'0420/0038.png'
p5693
aS'0420/0041.png'
p5694
aS'0420/0044.png'
p5695
aS'0420/0048.png'
p5696
aS'0420/0051.png'
p5697
aS'0420/0054.png'
p5698
aS'0420/0058.png'
p5699
aS'0420/0061.png'
p5700
aS'0420/0064.png'
p5701
aS'0420/0068.png'
p5702
aS'0420/0071.png'
p5703
aS'0420/0074.png'
p5704
aS'0420/0078.png'
p5705
aS'0420/0081.png'
p5706
aS'0420/0084.png'
p5707
aS'0420/0088.png'
p5708
aS'0420/0091.png'
p5738
aa(lp5739
S'0422/0001.png'
p5740
aS'0422/0002.png'
p5741
aS'0422/0003.png'
p5742
aS'0422/0004.png'
p5743
aS'0422/0005.png'
p5744
aS'0422/0006.png'
p5745
aS'0422/0007.png'
p5746
aS'0422/0008.png'
p5747
aS'0422/0009.png'
p5748
aS'0422/0011.png'
p5749
aS'0422/0013.png'
p5750
aS'0422/0015.png'
p5765
aa(lp5766
S'0424/0001 (copy).png'
p5767
aS'0424/0001.png'
p5768
aS'0424/0002.png'
p5769
aS'0424/0003.png'
p5770
aS'0424/0004.png'
p5771
aS'0424/0005.png'
p5772
aS'0424/0006.png'
p5773
aS'0424/0007.png'
p5774
aS'0424/0011.png'
p5775
aS'0424/0014.png'
p5776
aS'0424/0021.png'
p5777
aa(lp5778
S'0425/0001.png'
p5779
aS'0425/0002.png'
p5780
aS'0425/0003.png'
p5781
aS'0425/0004.png'
p5782
aS'0425/0005 (copy).png'
p5783
aS'0425/0005.png'
p5784
aS'0425/0006 (copy).png'
p5785
aS'0425/0006.png'
p5786
aS'0425/0007.png'
p5787
aS'0425/0024.png'
p5788
aS'0425/0032.png'
p5789
aS'0425/0037.png'
p5790
aS'0425/0041.png'
p5791
aS'0425/0047.png'
p5792
aS'0425/0054.png'
p5913
aa(lp5914
S'0431/0001.png'
p5915
aS'0431/0007.png'
p5916
aS'0431/0011.png'
p5917
aS'0431/0017.png'
p5918
aS'0431/0019.png'
p5919
aS'0431/0020.png'
p5920
aS'0431/0021.png'
p5921
aS'0431/0022.png'
p5922
aS'0431/0023.png'
p5923
aS'0431/0024.png'
p5924
aS'0431/0025.png'
p5925
aS'0431/0026.png'
p5926
aS'0431/0027.png'
p5927
aS'0431/0028.png'
p5928
aS'0431/0029.png'
p5929
aS'0431/0030.png'
p5930
aS'0431/0031.png'
p5931
aS'0431/0032.png'
p5932
aS'0431/0033.png'
p5933
aS'0431/0034.png'
p5934
aS'0431/0035.png'
p5935
aS'0431/0037.png'
p5936
aS'0431/0041.png'
p5937
aS'0431/0047.png'
p5938
aS'0431/0051.png'
p5939
aS'0431/0057.png'
p5940
aS'0431/0061.png'
p5941
aS'0431/0067.png'
p5942
aS'0431/0071.png'
p5965
aa(lp5966
S'0433/0001.png'
p5967
aS'0433/0006.png'
p5968
aS'0433/0011.png'
p5969
aS'0433/0016.png'
p5970
aS'0433/0021.png'
p5971
aS'0433/0026.png'
p5972
aS'0433/0031.png'
p5973
aS'0433/0033.png'
p5974
aS'0433/0034.png'
p5975
aS'0433/0035.png'
p5976
aS'0433/0036.png'
p5977
aS'0433/0037.png'
p5978
aS'0433/0038.png'
p5979
aS'0433/0039.png'
p5980
aS'0433/0040.png'
p5981
aS'0433/0041.png'
p5982
aS'0433/0042.png'
p5983
aS'0433/0043.png'
p5984
aS'0433/0044.png'
p5985
aS'0433/0045.png'
p5986
aS'0433/0046.png'
p5987
aS'0433/0047.png'
p5988
aS'0433/0048.png'
p5989
aS'0433/0051.png'
p5990
aS'0433/0056.png'
p5991
aS'0433/0061.png'
p6064
aa(lp6065
S'0437/0001.png'
p6066
aS'0437/0004.png'
p6067
aS'0437/0007.png'
p6068
aS'0437/0009.png'
p6069
aS'0437/0011.png'
p6070
aS'0437/0014.png'
p6071
aS'0437/0017.png'
p6072
aS'0437/0019.png'
p6073
aS'0437/0021.png'
p6074
aS'0437/0024.png'
p6075
aS'0437/0025.png'
p6076
aS'0437/0027.png'
p6077
aS'0437/0031.png'
p6078
aS'0437/0034.png'
p6079
aS'0437/0037.png'
p6080
aS'0437/0041.png'
p6081
aS'0437/0044.png'
p6082
aS'0437/0047.png'
p6083
aS'0437/0051.png'
p6084
aS'0437/0054.png'
p6085
aS'0437/0057.png'
p6086
aS'0437/0061.png'
p6087
aS'0437/0064.png'
p6088
aS'0437/0067.png'
p6089
aS'0437/0071.png'
p6090
aa(lp6091
S'0438/0001.png'
p6092
aS'0438/0004.png'
p6093
aS'0438/0007.png'
p6094
aS'0438/0022.png'
p6095
aS'0438/0023.png'
p6096
aS'0438/0024.png'
p6097
aS'0438/0025.png'
p6098
aS'0438/0026.png'
p6099
aS'0438/0027.png'
p6100
aS'0438/0028.png'
p6101
aS'0438/0037.png'
p6102
aS'0438/0040.png'
p6103
aS'0438/0041.png'
p6104
aS'0438/0042.png'
p6105
aS'0438/0043.png'
p6106
aS'0438/0044.png'
p6107
aS'0438/0054.png'
p6108
aS'0438/0064.png'
p6109
aS'0438/0067.png'
p6110
aS'0438/0071.png'
p6111
aS'0438/0074.png'
p6112
aS'0438/0077.png'
p6113
aS'0438/0081.png'
p6114
aS'0438/0084.png'
p6115
aa(lp6116
S'0439/0001.png'
p6117
aS'0439/0004.png'
p6118
aS'0439/0007.png'
p6119
aS'0439/0008.png'
p6120
aS'0439/0009.png'
p6121
aS'0439/0010.png'
p6122
aS'0439/0011.png'
p6123
aS'0439/0012.png'
p6124
aS'0439/0014.png'
p6125
aS'0439/0017.png'
p6126
aS'0439/0021.png'
p6127
aS'0439/0024.png'
p6128
aS'0439/0026.png'
p6129
aS'0439/0027.png'
p6130
aS'0439/0028.png'
p6131
aS'0439/0031.png'
p6132
aS'0439/0034.png'
p6133
aS'0439/0037.png'
p6134
aS'0439/0041.png'
p6135
aS'0439/0044.png'
p6136
aS'0439/0047.png'
p6137
aS'0439/0051.png'
p6138
aS'0439/0054.png'
p6139
aS'0439/0057.png'
p6140
aS'0439/0061.png'
p6141
aS'0439/0064.png'
p6142
aS'0439/0067.png'
p6143
aS'0439/0071.png'
p6144
aS'0439/0074.png'
p6145
aS'0439/0081.png'
p6146
aS'0439/0084.png'
p6147
aS'0439/0091.png'
p6148
aS'0439/0094.png'
p6165
aa(lp6166
S'0441/0001.png'
p6167
aS'0441/0002.png'
p6168
aS'0441/0003.png'
p6169
aS'0441/0005.png'
p6170
aS'0441/0006.png'
p6171
aS'0441/0007.png'
p6172
aS'0441/0008.png'
p6173
aS'0441/0009.png'
p6174
aS'0441/0010.png'
p6175
aS'0441/0011.png'
p6176
aS'0441/0012.png'
p6177
aS'0441/0013.png'
p6178
aS'0441/0019.png'
p6179
aS'0441/0020.png'
p6180
aS'0441/0021.png'
p6181
aS'0441/0022.png'
p6182
aS'0441/0024.png'
p6183
aS'0441/0027.png'
p6184
aS'0441/0029.png'
p6185
aS'0441/0032.png'
p6186
aS'0441/0043.png'
p6187
aS'0441/0052.png'
p6188
aS'0441/0054.png'
p6189
aS'0441/0063.png'
p6190
aS'0441/0064.png'
p6191
aS'0441/0067.png'
p6192
aS'0441/0070.png'
p6193
aS'0441/0074.png'
p6194
aS'0441/0076.png'
p6195
aS'0441/0077.png'
p6196
aS'0441/0079.png'
p6197
aS'0441/0082.png'
p6198
aS'0441/0083.png'
p6199
aS'0441/0084.png'
p6200
aS'0441/0085.png'
p6201
aS'0441/0086.png'
p6202
aS'0441/0088.png'
p6203
aS'0441/0089.png'
p6204
aS'0441/0090.png'
p6205
aS'0441/0091.png'
p6206
aS'0441/0092.png'
p6207
aS'0441/0093.png'
p6208
aS'0441/0094.png'
p6209
aS'0441/0095.png'
p6210
aS'0441/0096.png'
p6211
aS'0441/0098.png'
p6212
aS'0441/0099.png'
p6213
aS'0441/0100.png'
p6348
aa(lp6349
S'0449/0016 (another copy).png'
p6350
aS'0449/0016.png'
p6351
aS'0449/0017.png'
p6352
aS'0449/0018.png'
p6353
aS'0449/0019.png'
p6354
aS'0449/0020.png'
p6355
aS'0449/0021.png'
p6356
aS'0449/0022.png'
p6357
aS'0449/0023.png'
p6358
aS'0449/0024.png'
p6359
aS'0449/0025.png'
p6360
aS'0449/0026.png'
p6361
aS'0449/0027.png'
p6362
aS'0449/0028.png'
p6363
aS'0449/0029.png'
p6364
aS'0449/0030.png'
p6365
aa(lp6366
S'0450/0031 (12th copy).png'
p6367
aS'0450/0031.png'
p6368
aS'0450/0032.png'
p6369
aS'0450/0033.png'
p6370
aS'0450/0034.png'
p6371
aS'0450/0035.png'
p6372
aS'0450/0036.png'
p6373
aS'0450/0037.png'
p6374
aS'0450/0038.png'
p6375
aS'0450/0039.png'
p6376
aS'0450/0040.png'
p6377
aS'0450/0041.png'
p6378
aS'0450/0042.png'
p6379
aS'0450/0043.png'
p6380
aS'0450/0044.png'
p6381
aS'0450/0045.png'
p6382
aS'0450/0046.png'
p6383
aS'0450/0047.png'
p6384
aS'0450/0048.png'
p6396
aa(lp6397
S'0452/0059.png'
p6398
aS'0452/0060.png'
p6399
aS'0452/0061.png'
p6400
aS'0452/0062.png'
p6401
aS'0452/0063.png'
p6402
aS'0452/0064.png'
p6403
aS'0452/0065.png'
p6404
aS'0452/0066.png'
p6405
aS'0452/0067.png'
p6406
aS'0452/0068.png'
p6407
aS'0452/0069.png'
p6408
aS'0452/0070.png'
p6431
aa(lp6432
S'0454/0102.png'
p6433
aS'0454/0103.png'
p6434
aS'0454/0104.png'
p6435
aS'0454/0105.png'
p6436
aS'0454/0106.png'
p6437
aS'0454/0107.png'
p6438
aS'0454/0108.png'
p6439
aS'0454/0109.png'
p6440
aS'0454/0110.png'
p6441
aS'0454/0111.png'
p6442
aS'0454/0112.png'
p6443
aS'0454/0113.png'
p6444
aS'0454/0114.png'
p6445
aS'0454/0115.png'
p6474
aa(lp6475
S'0460/0001.png'
p6476
aS'0460/0010.png'
p6477
aS'0460/0011.png'
p6478
aS'0460/0023.png'
p6479
aS'0460/0034.png'
p6480
aS'0460/0035.png'
p6481
aS'0460/0036.png'
p6482
aS'0460/0038.png'
p6483
aS'0460/0042.png'
p6484
aS'0460/0043.png'
p6485
aS'0460/0044.png'
p6486
aS'0460/0055.png'
p6507
aa(lp6508
S'0462/0001.png'
p6509
aS'0462/0002.png'
p6510
aS'0462/0003.png'
p6511
aS'0462/0004.png'
p6512
aS'0462/0005.png'
p6513
aS'0462/0006.png'
p6514
aS'0462/0007.png'
p6515
aS'0462/0008.png'
p6516
aS'0462/0009.png'
p6517
aS'0462/0011.png'
p6518
aS'0462/0018.png'
p6519
aS'0462/0034.png'
p6520
aS'0462/0037.png'
p6521
aS'0462/0042.png'
p6522
aS'0462/0043.png'
p6523
aS'0462/0044.png'
p6524
aS'0462/0045.png'
p6525
aS'0462/0047.png'
p6526
aS'0462/0050.png'
p6527
aS'0462/0052.png'
p6528
aS'0462/0058.png'
p6529
aS'0462/0061.png'
p6530
aS'0462/0062.png'
p6531
aS'0462/0068.png'
p6532
aS'0462/0077.png'
p6540
aa(lp6541
S'0465/0001.png'
p6542
aS'0465/0013.png'
p6543
aS'0465/0014.png'
p6544
aS'0465/0015.png'
p6545
aS'0465/0016.png'
p6546
aS'0465/0017.png'
p6547
aS'0465/0018.png'
p6548
aS'0465/0019.png'
p6549
aS'0465/0020.png'
p6550
aS'0465/0021.png'
p6551
aS'0465/0022.png'
p6552
aS'0465/0023.png'
p6553
aS'0465/0026.png'
p6554
aS'0465/0041.png'
p6555
aS'0465/0044.png'
p6556
aS'0465/0050.png'
p6557
aS'0465/0058.png'
p6558
aS'0465/0064.png'
p6582
aa(lp6583
S'0468/0001.png'
p6584
aS'0468/0018.png'
p6585
aS'0468/0020.png'
p6586
aS'0468/0021.png'
p6587
aS'0468/0026.png'
p6588
aS'0468/0030.png'
p6589
aS'0468/0044.png'
p6590
aS'0468/0047.png'
p6591
aS'0468/0049.png'
p6592
aS'0468/0070.png'
p6593
aa(lp6594
S'0469/0001.png'
p6595
aS'0469/0004.png'
p6596
aS'0469/0010.png'
p6597
aS'0469/0011.png'
p6598
aS'0469/0012.png'
p6599
aS'0469/0027.png'
p6600
aS'0469/0047.png'
p6601
aS'0469/0048.png'
p6602
aS'0469/0052.png'
p6603
aa(lp6604
S'0470/0001.png'
p6605
aS'0470/0004.png'
p6606
aS'0470/0008.png'
p6607
aS'0470/0011.png'
p6608
aS'0470/0014.png'
p6609
aS'0470/0018.png'
p6610
aS'0470/0024.png'
p6611
aS'0470/0034.png'
p6612
aS'0470/0051.png'
p6613
aS'0470/0054.png'
p6614
aS'0470/0068.png'
p6615
aS'0470/0074.png'
p6616
aS'0470/0077.png'
p6617
aS'0470/0078.png'
p6618
aS'0470/0082.png'
p6619
aa(lp6620
S'0471/0001.png'
p6621
aS'0471/0011.png'
p6622
aS'0471/0021.png'
p6623
aS'0471/0031.png'
p6624
aS'0471/0035.png'
p6625
aS'0471/0036.png'
p6626
aS'0471/0038.png'
p6627
aS'0471/0039.png'
p6628
aS'0471/0040.png'
p6629
aS'0471/0041.png'
p6630
aS'0471/0042.png'
p6631
aS'0471/0043.png'
p6632
aS'0471/0044.png'
p6633
aS'0471/0045.png'
p6634
aS'0471/0046.png'
p6635
aS'0471/0051.png'
p6636
aS'0471/0058.png'
p6637
aS'0471/0061.png'
p6638
aa(lp6639
S'0472/0001.png'
p6640
aS'0472/0010.png'
p6641
aS'0472/0011.png'
p6642
aS'0472/0012.png'
p6643
aS'0472/0013.png'
p6644
aS'0472/0020.png'
p6645
aS'0472/0026.png'
p6646
aS'0472/0027.png'
p6647
aS'0472/0028.png'
p6648
aS'0472/0029.png'
p6649
aa(lp6650
S'0473/0001.png'
p6651
aS'0473/0012.png'
p6652
aS'0473/0013.png'
p6653
aS'0473/0014.png'
p6654
aS'0473/0015.png'
p6655
aS'0473/0036.png'
p6656
aS'0473/0037.png'
p6657
aS'0473/0040.png'
p6658
aS'0473/0048.png'
p6659
aa(lp6660
S'0474/0001.png'
p6661
aS'0474/0016.png'
p6662
aS'0474/0017.png'
p6663
aS'0474/0018.png'
p6664
aS'0474/0019.png'
p6665
aS'0474/0020.png'
p6666
aS'0474/0027.png'
p6667
aS'0474/0028.png'
p6668
aS'0474/0029.png'
p6669
aS'0474/0030.png'
p6670
aS'0474/0031.png'
p6671
aS'0474/0033.png'
p6672
aS'0474/0035.png'
p6673
aS'0474/0036.png'
p6674
aS'0474/0037.png'
p6675
aS'0474/0038.png'
p6676
aS'0474/0039.png'
p6677
aS'0474/0040.png'
p6678
aS'0474/0041.png'
p6679
aS'0474/0042.png'
p6680
aS'0474/0043.png'
p6681
aS'0474/0044.png'
p6682
aS'0474/0046.png'
p6683
aS'0474/0054.png'
p6684
aS'0474/0055.png'
p6685
aS'0474/0056.png'
p6686
aS'0474/0064.png'
p6687
aa(lp6688
S'0475/0001.png'
p6689
aS'0475/0010.png'
p6690
aS'0475/0011.png'
p6691
aS'0475/0018.png'
p6692
aS'0475/0019.png'
p6693
aS'0475/0020.png'
p6694
aS'0475/0021.png'
p6695
aS'0475/0022.png'
p6696
aS'0475/0023.png'
p6697
aS'0475/0024.png'
p6698
aS'0475/0025.png'
p6699
aS'0475/0026.png'
p6700
aS'0475/0027.png'
p6701
aS'0475/0028.png'
p6702
aS'0475/0029.png'
p6703
aS'0475/0030.png'
p6704
aS'0475/0040.png'
p6705
aS'0475/0041.png'
p6706
aS'0475/0042.png'
p6719
aa(lp6720
S'0477/0001.png'
p6721
aS'0477/0009.png'
p6722
aS'0477/0010.png'
p6723
aS'0477/0013.png'
p6724
aS'0477/0015.png'
p6725
aS'0477/0017.png'
p6726
aS'0477/0019.png'
p6727
aS'0477/0022.png'
p6728
aS'0477/0025.png'
p6729
aS'0477/0026.png'
p6730
aS'0477/0033.png'
p6781
aa(lp6782
S'0483/0011.png'
p6783
aS'0483/0012.png'
p6784
aS'0483/0024.png'
p6785
aS'0483/0028.png'
p6786
aS'0483/0033.png'
p6795
aa.